; Function Attrs: nounwind uwtable
define noundef nonnull ptr @l_Array_anyMUnsafe_any___at_Lean_Elab_PartialFixpoint_registerEqnsInfo___spec__1___boxed(ptr noundef %0, ptr noundef %1, ptr noundef %2) local_unnamed_addr #0 {
  %4 = getelementptr i8, ptr %1, i64 8
  %.val = load i64, ptr %4, align 8, !tbaa !12
  %5 = ptrtoint ptr %1 to i64
  %6 = and i64 %5, 1
  %.not = icmp eq i64 %6, 0
  br i1 %.not, label %7, label %lean_dec.exit10

7:                                                ; preds = %3
  %8 = load i32, ptr %1, align 4, !tbaa !8
  %9 = icmp sgt i32 %8, 1
  br i1 %9, label %10, label %12, !prof !11

10:                                               ; preds = %7
  %11 = add nsw i32 %8, -1
  store i32 %11, ptr %1, align 4, !tbaa !8
  br label %lean_dec.exit10

12:                                               ; preds = %7
  %.not.i = icmp eq i32 %8, 0
  br i1 %.not.i, label %lean_dec.exit10, label %13

13:                                               ; preds = %12
  tail call void @lean_dec_ref_cold(ptr noundef nonnull %1) #5
  br label %lean_dec.exit10

lean_dec.exit10:                                  ; preds = %13, %12, %10, %3
  %14 = getelementptr i8, ptr %2, i64 8
  %.val15 = load i64, ptr %14, align 8, !tbaa !12
  %15 = ptrtoint ptr %2 to i64
  %16 = and i64 %15, 1
  %.not17 = icmp eq i64 %16, 0
  br i1 %.not17, label %17, label %lean_dec.exit9

17:                                               ; preds = %lean_dec.exit10
  %18 = load i32, ptr %2, align 4, !tbaa !8
  %19 = icmp sgt i32 %18, 1
  br i1 %19, label %20, label %22, !prof !11

20:                                               ; preds = %17
  %21 = add nsw i32 %18, -1
  store i32 %21, ptr %2, align 4, !tbaa !8
  br label %lean_dec.exit9

22:                                               ; preds = %17
  %.not.i11 = icmp eq i32 %18, 0
  br i1 %.not.i11, label %lean_dec.exit9, label %23

23:                                               ; preds = %22
  tail call void @lean_dec_ref_cold(ptr noundef nonnull %2) #5
  br label %lean_dec.exit9

lean_dec.exit9:                                   ; preds = %23, %22, %20, %lean_dec.exit10
  %.not30.i = icmp eq i64 %.val, %.val15
  br i1 %.not30.i, label %l_Array_anyMUnsafe_any___at_Lean_Elab_PartialFixpoint_registerEqnsInfo___spec__1.exit, label %.lr.ph.i

.lr.ph.i:                                         ; preds = %lean_dec.exit9
  %24 = getelementptr inbounds nuw i8, ptr %0, i64 24
  br label %27

25:                                               ; preds = %lean_dec.exit.i
  %26 = add i64 %.01531.i, 1
  %.not.i16 = icmp eq i64 %26, %.val15
  br i1 %.not.i16, label %l_Array_anyMUnsafe_any___at_Lean_Elab_PartialFixpoint_registerEqnsInfo___spec__1.exit, label %27

27:                                               ; preds = %25, %.lr.ph.i
  %.01531.i = phi i64 [ %.val, %.lr.ph.i ], [ %26, %25 ]
  %28 = getelementptr inbounds nuw [0 x ptr], ptr %24, i64 0, i64 %.01531.i
  %29 = load ptr, ptr %28, align 8, !tbaa !4
  %30 = ptrtoint ptr %29 to i64
  %31 = and i64 %30, 1
  %.not.i20.i = icmp eq i64 %31, 0
  br i1 %.not.i20.i, label %32, label %lean_array_uget.exit.i

32:                                               ; preds = %27
  %.val.i.i.i = load i32, ptr %29, align 4, !tbaa !8
  %33 = icmp sgt i32 %.val.i.i.i, 0
  br i1 %33, label %34, label %36, !prof !11

34:                                               ; preds = %32
  %35 = add nuw i32 %.val.i.i.i, 1
  store i32 %35, ptr %29, align 4, !tbaa !8
  br label %42

36:                                               ; preds = %32
  %.not.i.i.i = icmp eq i32 %.val.i.i.i, 0
  br i1 %.not.i.i.i, label %.thread21.i, label %39

.thread21.i:                                      ; preds = %36
  %37 = getelementptr inbounds nuw i8, ptr %29, i64 64
  %38 = load i8, ptr %37, align 1, !tbaa !14
  br label %lean_dec.exit.i

39:                                               ; preds = %36
  tail call void @lean_inc_ref_cold(ptr noundef nonnull %29) #5
  %.pr.i = load i32, ptr %29, align 4, !tbaa !8
  br label %42

lean_array_uget.exit.i:                           ; preds = %27
  %40 = getelementptr inbounds nuw i8, ptr %29, i64 64
  %41 = load i8, ptr %40, align 1, !tbaa !14
  br label %lean_dec.exit.i

42:                                               ; preds = %39, %34
  %43 = phi i32 [ %35, %34 ], [ %.pr.i, %39 ]
  %44 = getelementptr inbounds nuw i8, ptr %29, i64 64
  %45 = load i8, ptr %44, align 1, !tbaa !14
  %46 = icmp sgt i32 %43, 1
  br i1 %46, label %47, label %49, !prof !15

47:                                               ; preds = %42
  %48 = add nsw i32 %43, -1
  store i32 %48, ptr %29, align 4, !tbaa !8
  br label %lean_dec.exit.i

49:                                               ; preds = %42
  %.not.i.i = icmp eq i32 %43, 0
  br i1 %.not.i.i, label %lean_dec.exit.i, label %50

50:                                               ; preds = %49
  tail call void @lean_dec_ref_cold(ptr noundef nonnull %29) #5
  br label %lean_dec.exit.i

lean_dec.exit.i:                                  ; preds = %50, %49, %47, %lean_array_uget.exit.i, %.thread21.i
  %51 = phi i8 [ %41, %lean_array_uget.exit.i ], [ %45, %47 ], [ %45, %49 ], [ %45, %50 ], [ %38, %.thread21.i ]
  %52 = tail call zeroext i8 @l_Lean_Elab_DefKind_isTheorem(i8 noundef zeroext %51) #5
  %53 = icmp eq i8 %52, 0
  br i1 %53, label %l_Array_anyMUnsafe_any___at_Lean_Elab_PartialFixpoint_registerEqnsInfo___spec__1.exit, label %25

l_Array_anyMUnsafe_any___at_Lean_Elab_PartialFixpoint_registerEqnsInfo___spec__1.exit: ; preds = %25, %lean_dec.exit.i, %lean_dec.exit9
  %.2.ph.i = phi i64 [ 1, %lean_dec.exit9 ], [ 1, %25 ], [ 3, %lean_dec.exit.i ]
  %54 = ptrtoint ptr %0 to i64
  %55 = and i64 %54, 1
  %.not18 = icmp eq i64 %55, 0
  br i1 %.not18, label %56, label %lean_dec.exit

56:                                               ; preds = %l_Array_anyMUnsafe_any___at_Lean_Elab_PartialFixpoint_registerEqnsInfo___spec__1.exit
  %57 = load i32, ptr %0, align 4, !tbaa !8
  %58 = icmp sgt i32 %57, 1
  br i1 %58, label %59, label %61, !prof !11

59:                                               ; preds = %56
  %60 = add nsw i32 %57, -1
  store i32 %60, ptr %0, align 4, !tbaa !8
  br label %lean_dec.exit

61:                                               ; preds = %56
  %.not.i13 = icmp eq i32 %57, 0
  br i1 %.not.i13, label %lean_dec.exit, label %62

62:                                               ; preds = %61
  tail call void @lean_dec_ref_cold(ptr noundef nonnull %0) #5
  br label %lean_dec.exit

lean_dec.exit:                                    ; preds = %62, %61, %59, %l_Array_anyMUnsafe_any___at_Lean_Elab_PartialFixpoint_registerEqnsInfo___spec__1.exit
  %63 = inttoptr i64 %.2.ph.i to ptr
  ret ptr %63
}